target datalayout = "e-m:e-p270:32:32-p271:32:32-p272:64:64-i64:64-i128:128-f80:128-n8:16:32:64-S128"
target triple = "x86_64-pc-linux-gnu"

%"struct.duckdb_libpgquery::PGGroupingSet" = type { i32, i32, ptr, i32 }

; Function Attrs: mustprogress uwtable
define hidden noundef ptr @_ZN17duckdb_libpgquery15makeGroupingSetENS_15GroupingSetKindEPNS_6PGListEi(i32 noundef %0, ptr noundef %1, i32 noundef %2) #0 {
  %4 = alloca i32, align 4
  %5 = alloca ptr, align 8
  %6 = alloca i32, align 4
  %7 = alloca ptr, align 8
  store i32 %0, ptr %4, align 4, !tbaa !83
  store ptr %1, ptr %5, align 8, !tbaa !7
  store i32 %2, ptr %6, align 4, !tbaa !12
  call void @llvm.lifetime.start.p0(i64 8, ptr %7) #3
  %8 = call noundef ptr @_ZN17duckdb_libpgquery7newNodeEmNS_9PGNodeTagE(i64 noundef 24, i32 noundef 382)
  store ptr %8, ptr %7, align 8, !tbaa !85
  %9 = load i32, ptr %4, align 4, !tbaa !83
  %10 = load ptr, ptr %7, align 8, !tbaa !85
  %11 = getelementptr inbounds nuw %"struct.duckdb_libpgquery::PGGroupingSet", ptr %10, i32 0, i32 1
  store i32 %9, ptr %11, align 4, !tbaa !87
  %12 = load ptr, ptr %5, align 8, !tbaa !7
  %13 = load ptr, ptr %7, align 8, !tbaa !85
  %14 = getelementptr inbounds nuw %"struct.duckdb_libpgquery::PGGroupingSet", ptr %13, i32 0, i32 2
  store ptr %12, ptr %14, align 8, !tbaa !89
  %15 = load i32, ptr %6, align 4, !tbaa !12
  %16 = load ptr, ptr %7, align 8, !tbaa !85
  %17 = getelementptr inbounds nuw %"struct.duckdb_libpgquery::PGGroupingSet", ptr %16, i32 0, i32 3
  store i32 %15, ptr %17, align 8, !tbaa !90
  %18 = load ptr, ptr %7, align 8, !tbaa !85
  call void @llvm.lifetime.end.p0(i64 8, ptr %7) #3
  ret ptr %18
}