; Function Attrs: mustprogress uwtable
define hidden noundef ptr @_ZN17duckdb_libpgquery15makeGroupingSetENS_15GroupingSetKindEPNS_6PGListEi(i32 noundef %0, ptr noundef %1, i32 noundef %2) local_unnamed_addr #0 {
  %4 = tail call noundef ptr @_ZN17duckdb_libpgquery7newNodeEmNS_9PGNodeTagE(i64 noundef 24, i32 noundef 382)
  %5 = getelementptr inbounds nuw i8, ptr %4, i64 4
  store i32 %0, ptr %5, align 4, !tbaa !61
  %6 = getelementptr inbounds nuw i8, ptr %4, i64 8
  store ptr %1, ptr %6, align 8, !tbaa !64
  %7 = getelementptr inbounds nuw i8, ptr %4, i64 16
  store i32 %2, ptr %7, align 8, !tbaa !65
  ret ptr %4
}